; Function Attrs: nounwind uwtable
define internal fastcc void @terminate_brin_buildstate(ptr noundef %0) unnamed_addr #0 {
  %2 = getelementptr inbounds nuw i8, ptr %0, i64 24
  %3 = load i32, ptr %2, align 8
  %4 = icmp eq i32 %3, 0
  br i1 %4, label %26, label %5

5:                                                ; preds = %1
  %6 = icmp slt i32 %3, 0
  br i1 %6, label %7, label %13

7:                                                ; preds = %5
  %8 = load ptr, ptr @LocalBufferBlockPointers, align 8
  %9 = xor i32 %3, -1
  %10 = zext nneg i32 %9 to i64
  %11 = getelementptr inbounds nuw ptr, ptr %8, i64 %10
  %12 = load ptr, ptr %11, align 8
  br label %BufferGetPage.exit

13:                                               ; preds = %5
  %14 = load ptr, ptr @BufferBlocks, align 8
  %15 = add nsw i32 %3, -1
  %16 = zext nneg i32 %15 to i64
  %17 = shl nuw nsw i64 %16, 13
  %18 = getelementptr inbounds nuw i8, ptr %14, i64 %17
  br label %BufferGetPage.exit

BufferGetPage.exit:                               ; preds = %7, %13
  %.0.i.i = phi ptr [ %12, %7 ], [ %18, %13 ]
  %19 = tail call i64 @PageGetFreeSpace(ptr noundef %.0.i.i) #10
  %20 = load i32, ptr %2, align 8
  %21 = tail call i32 @BufferGetBlockNumber(i32 noundef %20) #10
  %22 = load i32, ptr %2, align 8
  tail call void @ReleaseBuffer(i32 noundef %22) #10
  %23 = load ptr, ptr %0, align 8
  tail call void @RecordPageWithFreeSpace(ptr noundef %23, i32 noundef %21, i64 noundef %19) #10
  %24 = load ptr, ptr %0, align 8
  %25 = add i32 %21, 1
  tail call void @FreeSpaceMapVacuumRange(ptr noundef %24, i32 noundef %21, i32 noundef %25) #10
  br label %26

26:                                               ; preds = %BufferGetPage.exit, %1
  %27 = getelementptr inbounds nuw i8, ptr %0, i64 48
  %28 = load ptr, ptr %27, align 8
  %29 = load ptr, ptr %28, align 8
  tail call void @MemoryContextDelete(ptr noundef %29) #10
  %30 = getelementptr inbounds nuw i8, ptr %0, i64 56
  %31 = load ptr, ptr %30, align 8
  tail call void @pfree(ptr noundef %31) #10
  tail call void @pfree(ptr noundef nonnull %0) #10
  ret void
}